target datalayout = "e-m:e-p270:32:32-p271:32:32-p272:64:64-i64:64-i128:128-f80:128-n8:16:32:64-S128"
target triple = "x86_64-unknown-linux-gnu"

%"class.cvc5::internal::prop::MinisatSatSolver::Statistics" = type { %"class.cvc5::internal::ReferenceStat", %"class.cvc5::internal::ReferenceStat", %"class.cvc5::internal::ReferenceStat", %"class.cvc5::internal::ReferenceStat", %"class.cvc5::internal::ReferenceStat", %"class.cvc5::internal::ReferenceStat", %"class.cvc5::internal::ReferenceStat", %"class.cvc5::internal::ReferenceStat", %"class.cvc5::internal::ReferenceStat" }
%"class.cvc5::internal::ReferenceStat" = type { ptr }
%"struct.cvc5::internal::StatisticReferenceValue" = type { %"struct.cvc5::internal::StatisticBaseValue.base", ptr, %"class.std::optional" }
%"struct.cvc5::internal::StatisticBaseValue.base" = type <{ ptr, i8 }>
%"class.std::optional" = type { %"struct.std::_Optional_base" }
%"struct.std::_Optional_base" = type { %"struct.std::_Optional_payload" }
%"struct.std::_Optional_payload" = type { %"struct.std::_Optional_payload_base.base", [7 x i8] }
%"struct.std::_Optional_payload_base.base" = type <{ %"union.std::_Optional_payload_base<long>::_Storage", i8 }>
%"union.std::_Optional_payload_base<long>::_Storage" = type { i64 }
%"struct.std::_Optional_payload_base" = type <{ %"union.std::_Optional_payload_base<long>::_Storage", i8, [7 x i8] }>

; Function Attrs: mustprogress nounwind uwtable
define linkonce_odr hidden void @_ZNSt22_Optional_payload_baseIlE8_StorageIlLb1EEC2IJRKlEEESt10in_place_tDpOT_(ptr noundef nonnull align 8 dereferenceable(8) %this, ptr noundef nonnull align 8 dereferenceable(8) %__args) unnamed_addr #4 comdat align 2 {
entry:
  %this.addr = alloca ptr, align 8
  %__args.addr = alloca ptr, align 8
  store ptr %this, ptr %this.addr, align 8
  store ptr %__args, ptr %__args.addr, align 8
  %this1 = load ptr, ptr %this.addr, align 8
  %0 = load ptr, ptr %__args.addr, align 8
  %1 = load i64, ptr %0, align 8
  store i64 %1, ptr %this1, align 8
  ret void
}

; Function Attrs: mustprogress uwtable
define linkonce_odr hidden void @_ZNSt22_Optional_payload_baseIlEC2IJRKlEEESt10in_place_tDpOT_(ptr noundef nonnull align 8 dereferenceable(9) %this, ptr noundef nonnull align 8 dereferenceable(8) %__args) unnamed_addr #5 comdat align 2 {
entry:
  %this.addr = alloca ptr, align 8
  %__args.addr = alloca ptr, align 8
  store ptr %this, ptr %this.addr, align 8
  store ptr %__args, ptr %__args.addr, align 8
  %this1 = load ptr, ptr %this.addr, align 8
  %_M_payload = getelementptr inbounds %"struct.std::_Optional_payload_base", ptr %this1, i32 0, i32 0
  %0 = load ptr, ptr %__args.addr, align 8
  call void @_ZNSt22_Optional_payload_baseIlE8_StorageIlLb1EEC2IJRKlEEESt10in_place_tDpOT_(ptr noundef nonnull align 8 dereferenceable(8) %_M_payload, ptr noundef nonnull align 8 dereferenceable(8) %0)
  %_M_engaged = getelementptr inbounds %"struct.std::_Optional_payload_base", ptr %this1, i32 0, i32 1
  store i8 1, ptr %_M_engaged, align 8
  ret void
}

; Function Attrs: mustprogress uwtable
define linkonce_odr hidden void @_ZNSt17_Optional_payloadIlLb1ELb1ELb1EECI2St22_Optional_payload_baseIlEIJRKlEEESt10in_place_tDpOT_(ptr noundef nonnull align 8 dereferenceable(9) %this, ptr noundef nonnull align 8 dereferenceable(8) %0) unnamed_addr #5 comdat align 2 {
entry:
  %this.addr = alloca ptr, align 8
  %.addr = alloca ptr, align 8
  store ptr %this, ptr %this.addr, align 8
  store ptr %0, ptr %.addr, align 8
  %this1 = load ptr, ptr %this.addr, align 8
  %1 = load ptr, ptr %.addr, align 8
  call void @_ZNSt22_Optional_payload_baseIlEC2IJRKlEEESt10in_place_tDpOT_(ptr noundef nonnull align 8 dereferenceable(9) %this1, ptr noundef nonnull align 8 dereferenceable(8) %1)
  ret void
}

; Function Attrs: noreturn nounwind uwtable
define linkonce_odr hidden void @__clang_call_terminate(ptr noundef %0) #7 comdat {
  %2 = call ptr @__cxa_begin_catch(ptr %0) #3
  call void @_ZSt9terminatev() #18
  unreachable
}

; Function Attrs: mustprogress uwtable
define linkonce_odr hidden void @_ZNSt14_Optional_baseIlLb1ELb1EEC2IJRKlETnNSt9enable_ifIX18is_constructible_vIlDpT_EEbE4typeELb0EEESt10in_place_tDpOS5_(ptr noundef nonnull align 8 dereferenceable(16) %this, ptr noundef nonnull align 8 dereferenceable(8) %__args) unnamed_addr #5 comdat align 2 {
entry:
  %this.addr = alloca ptr, align 8
  %__args.addr = alloca ptr, align 8
  store ptr %this, ptr %this.addr, align 8
  store ptr %__args, ptr %__args.addr, align 8
  %this1 = load ptr, ptr %this.addr, align 8
  %_M_payload = getelementptr inbounds %"struct.std::_Optional_base", ptr %this1, i32 0, i32 0
  %0 = load ptr, ptr %__args.addr, align 8
  call void @_ZNSt17_Optional_payloadIlLb1ELb1ELb1EECI2St22_Optional_payload_baseIlEIJRKlEEESt10in_place_tDpOT_(ptr noundef nonnull align 8 dereferenceable(9) %_M_payload, ptr noundef nonnull align 8 dereferenceable(8) %0)
  ret void
}

; Function Attrs: mustprogress nounwind uwtable
define linkonce_odr hidden void @_ZNSt8optionalIlEC2IRKlTnNSt9enable_ifIX7__and_vISt6__not_ISt7is_sameIS0_NSt9remove_cvINSt16remove_referenceIT_E4typeEE4typeEEES5_IS6_ISt10in_place_tSD_EESt16is_constructibleIlJS9_EESt14is_convertibleIS9_lEEEbE4typeELb1EEEOS9_(ptr noundef nonnull align 8 dereferenceable(16) %this, ptr noundef nonnull align 8 dereferenceable(8) %__t) unnamed_addr #4 comdat align 2 personality ptr @__gxx_personality_v0 {
entry:
  %this.addr = alloca ptr, align 8
  %__t.addr = alloca ptr, align 8
  store ptr %this, ptr %this.addr, align 8
  store ptr %__t, ptr %__t.addr, align 8
  %this1 = load ptr, ptr %this.addr, align 8
  %0 = load ptr, ptr %__t.addr, align 8
  invoke void @_ZNSt14_Optional_baseIlLb1ELb1EEC2IJRKlETnNSt9enable_ifIX18is_constructible_vIlDpT_EEbE4typeELb0EEESt10in_place_tDpOS5_(ptr noundef nonnull align 8 dereferenceable(16) %this1, ptr noundef nonnull align 8 dereferenceable(8) %0)
          to label %invoke.cont unwind label %terminate.lpad

invoke.cont:                                      ; preds = %entry
  ret void

terminate.lpad:                                   ; preds = %entry
  %1 = landingpad { ptr, i32 }
          catch ptr null
  %2 = extractvalue { ptr, i32 } %1, 0
  call void @__clang_call_terminate(ptr %2) #18
  unreachable
}

; Function Attrs: mustprogress nounwind uwtable
define linkonce_odr hidden void @_ZN4cvc58internal23StatisticReferenceValueIlE6commitEv(ptr noundef nonnull align 8 dereferenceable(40) %this) #4 comdat align 2 {
entry:
  %this.addr = alloca ptr, align 8
  %ref.tmp = alloca %"class.std::optional", align 8
  store ptr %this, ptr %this.addr, align 8
  %this1 = load ptr, ptr %this.addr, align 8
  %d_value = getelementptr inbounds %"struct.cvc5::internal::StatisticReferenceValue", ptr %this1, i32 0, i32 1
  %0 = load ptr, ptr %d_value, align 8
  %cmp = icmp ne ptr %0, null
  br i1 %cmp, label %if.then, label %if.end

if.then:                                          ; preds = %entry
  %d_value2 = getelementptr inbounds %"struct.cvc5::internal::StatisticReferenceValue", ptr %this1, i32 0, i32 1
  %1 = load ptr, ptr %d_value2, align 8
  call void @_ZNSt8optionalIlEC2IRKlTnNSt9enable_ifIX7__and_vISt6__not_ISt7is_sameIS0_NSt9remove_cvINSt16remove_referenceIT_E4typeEE4typeEEES5_IS6_ISt10in_place_tSD_EESt16is_constructibleIlJS9_EESt14is_convertibleIS9_lEEEbE4typeELb1EEEOS9_(ptr noundef nonnull align 8 dereferenceable(16) %ref.tmp, ptr noundef nonnull align 8 dereferenceable(8) %1) #3
  %d_committed = getelementptr inbounds %"struct.cvc5::internal::StatisticReferenceValue", ptr %this1, i32 0, i32 2
  call void @llvm.memcpy.p0.p0.i64(ptr align 8 %d_committed, ptr align 8 %ref.tmp, i64 16, i1 false)
  br label %if.end

if.end:                                           ; preds = %if.then, %entry
  ret void
}

; Function Attrs: mustprogress nounwind uwtable
define linkonce_odr hidden void @_ZN4cvc58internal13ReferenceStatIlE5resetEv(ptr noundef nonnull align 8 dereferenceable(8) %this) #4 comdat align 2 {
entry:
  %this.addr = alloca ptr, align 8
  store ptr %this, ptr %this.addr, align 8
  %this1 = load ptr, ptr %this.addr, align 8
  %d_data = getelementptr inbounds %"class.cvc5::internal::ReferenceStat", ptr %this1, i32 0, i32 0
  %0 = load ptr, ptr %d_data, align 8
  call void @_ZN4cvc58internal23StatisticReferenceValueIlE6commitEv(ptr noundef nonnull align 8 dereferenceable(40) %0)
  %d_data2 = getelementptr inbounds %"class.cvc5::internal::ReferenceStat", ptr %this1, i32 0, i32 0
  %1 = load ptr, ptr %d_data2, align 8
  %d_value = getelementptr inbounds %"struct.cvc5::internal::StatisticReferenceValue", ptr %1, i32 0, i32 1
  store ptr null, ptr %d_value, align 8
  ret void
}

; Function Attrs: mustprogress uwtable
define hidden void @_ZN4cvc58internal4prop16MinisatSatSolver10Statistics6deinitEv(ptr noundef nonnull align 8 dereferenceable(72) %this) #5 align 2 {
entry:
  %this.addr = alloca ptr, align 8
  store ptr %this, ptr %this.addr, align 8
  %this1 = load ptr, ptr %this.addr, align 8
  %d_statStarts = getelementptr inbounds %"class.cvc5::internal::prop::MinisatSatSolver::Statistics", ptr %this1, i32 0, i32 0
  call void @_ZN4cvc58internal13ReferenceStatIlE5resetEv(ptr noundef nonnull align 8 dereferenceable(8) %d_statStarts)
  %d_statDecisions = getelementptr inbounds %"class.cvc5::internal::prop::MinisatSatSolver::Statistics", ptr %this1, i32 0, i32 1
  call void @_ZN4cvc58internal13ReferenceStatIlE5resetEv(ptr noundef nonnull align 8 dereferenceable(8) %d_statDecisions)
  %d_statRndDecisions = getelementptr inbounds %"class.cvc5::internal::prop::MinisatSatSolver::Statistics", ptr %this1, i32 0, i32 2
  call void @_ZN4cvc58internal13ReferenceStatIlE5resetEv(ptr noundef nonnull align 8 dereferenceable(8) %d_statRndDecisions)
  %d_statPropagations = getelementptr inbounds %"class.cvc5::internal::prop::MinisatSatSolver::Statistics", ptr %this1, i32 0, i32 3
  call void @_ZN4cvc58internal13ReferenceStatIlE5resetEv(ptr noundef nonnull align 8 dereferenceable(8) %d_statPropagations)
  %d_statConflicts = getelementptr inbounds %"class.cvc5::internal::prop::MinisatSatSolver::Statistics", ptr %this1, i32 0, i32 4
  call void @_ZN4cvc58internal13ReferenceStatIlE5resetEv(ptr noundef nonnull align 8 dereferenceable(8) %d_statConflicts)
  %d_statClausesLiterals = getelementptr inbounds %"class.cvc5::internal::prop::MinisatSatSolver::Statistics", ptr %this1, i32 0, i32 5
  call void @_ZN4cvc58internal13ReferenceStatIlE5resetEv(ptr noundef nonnull align 8 dereferenceable(8) %d_statClausesLiterals)
  %d_statLearntsLiterals = getelementptr inbounds %"class.cvc5::internal::prop::MinisatSatSolver::Statistics", ptr %this1, i32 0, i32 6
  call void @_ZN4cvc58internal13ReferenceStatIlE5resetEv(ptr noundef nonnull align 8 dereferenceable(8) %d_statLearntsLiterals)
  %d_statMaxLiterals = getelementptr inbounds %"class.cvc5::internal::prop::MinisatSatSolver::Statistics", ptr %this1, i32 0, i32 7
  call void @_ZN4cvc58internal13ReferenceStatIlE5resetEv(ptr noundef nonnull align 8 dereferenceable(8) %d_statMaxLiterals)
  %d_statTotLiterals = getelementptr inbounds %"class.cvc5::internal::prop::MinisatSatSolver::Statistics", ptr %this1, i32 0, i32 8
  call void @_ZN4cvc58internal13ReferenceStatIlE5resetEv(ptr noundef nonnull align 8 dereferenceable(8) %d_statTotLiterals)
  ret void
}