; Function Attrs: mustprogress nofree norecurse nosync nounwind willreturn memory(readwrite, inaccessiblemem: none) uwtable
define hidden void @_ZN4cvc58internal4prop16MinisatSatSolver10Statistics6deinitEv(ptr nocapture noundef nonnull readonly align 8 dereferenceable(72) %this) local_unnamed_addr #6 align 2 personality ptr @__gxx_personality_v0 {
entry:
  %0 = load ptr, ptr %this, align 8
  %d_value.i.i = getelementptr inbounds i8, ptr %0, i64 16
  %1 = load ptr, ptr %d_value.i.i, align 8
  %cmp.not.i.i = icmp eq ptr %1, null
  br i1 %cmp.not.i.i, label %_ZN4cvc58internal13ReferenceStatIlE5resetEv.exit, label %if.then.i.i

if.then.i.i:                                      ; preds = %entry
  %2 = load i64, ptr %1, align 8
  %d_committed.i.i = getelementptr inbounds i8, ptr %0, i64 24
  store i64 %2, ptr %d_committed.i.i, align 8
  %ref.tmp.sroa.2.0.d_committed.sroa_idx.i.i = getelementptr inbounds i8, ptr %0, i64 32
  store i8 1, ptr %ref.tmp.sroa.2.0.d_committed.sroa_idx.i.i, align 8
  %.pre.i = load ptr, ptr %this, align 8
  br label %_ZN4cvc58internal13ReferenceStatIlE5resetEv.exit

_ZN4cvc58internal13ReferenceStatIlE5resetEv.exit: ; preds = %entry, %if.then.i.i
  %3 = phi ptr [ %0, %entry ], [ %.pre.i, %if.then.i.i ]
  %d_value.i = getelementptr inbounds i8, ptr %3, i64 16
  store ptr null, ptr %d_value.i, align 8
  %d_statDecisions = getelementptr inbounds i8, ptr %this, i64 8
  %4 = load ptr, ptr %d_statDecisions, align 8
  %d_value.i.i1 = getelementptr inbounds i8, ptr %4, i64 16
  %5 = load ptr, ptr %d_value.i.i1, align 8
  %cmp.not.i.i2 = icmp eq ptr %5, null
  br i1 %cmp.not.i.i2, label %_ZN4cvc58internal13ReferenceStatIlE5resetEv.exit8, label %if.then.i.i3

if.then.i.i3:                                     ; preds = %_ZN4cvc58internal13ReferenceStatIlE5resetEv.exit
  %6 = load i64, ptr %5, align 8
  %d_committed.i.i4 = getelementptr inbounds i8, ptr %4, i64 24
  store i64 %6, ptr %d_committed.i.i4, align 8
  %ref.tmp.sroa.2.0.d_committed.sroa_idx.i.i5 = getelementptr inbounds i8, ptr %4, i64 32
  store i8 1, ptr %ref.tmp.sroa.2.0.d_committed.sroa_idx.i.i5, align 8
  %.pre.i6 = load ptr, ptr %d_statDecisions, align 8
  br label %_ZN4cvc58internal13ReferenceStatIlE5resetEv.exit8

_ZN4cvc58internal13ReferenceStatIlE5resetEv.exit8: ; preds = %_ZN4cvc58internal13ReferenceStatIlE5resetEv.exit, %if.then.i.i3
  %7 = phi ptr [ %4, %_ZN4cvc58internal13ReferenceStatIlE5resetEv.exit ], [ %.pre.i6, %if.then.i.i3 ]
  %d_value.i7 = getelementptr inbounds i8, ptr %7, i64 16
  store ptr null, ptr %d_value.i7, align 8
  %d_statRndDecisions = getelementptr inbounds i8, ptr %this, i64 16
  %8 = load ptr, ptr %d_statRndDecisions, align 8
  %d_value.i.i9 = getelementptr inbounds i8, ptr %8, i64 16
  %9 = load ptr, ptr %d_value.i.i9, align 8
  %cmp.not.i.i10 = icmp eq ptr %9, null
  br i1 %cmp.not.i.i10, label %_ZN4cvc58internal13ReferenceStatIlE5resetEv.exit16, label %if.then.i.i11

if.then.i.i11:                                    ; preds = %_ZN4cvc58internal13ReferenceStatIlE5resetEv.exit8
  %10 = load i64, ptr %9, align 8
  %d_committed.i.i12 = getelementptr inbounds i8, ptr %8, i64 24
  store i64 %10, ptr %d_committed.i.i12, align 8
  %ref.tmp.sroa.2.0.d_committed.sroa_idx.i.i13 = getelementptr inbounds i8, ptr %8, i64 32
  store i8 1, ptr %ref.tmp.sroa.2.0.d_committed.sroa_idx.i.i13, align 8
  %.pre.i14 = load ptr, ptr %d_statRndDecisions, align 8
  br label %_ZN4cvc58internal13ReferenceStatIlE5resetEv.exit16

_ZN4cvc58internal13ReferenceStatIlE5resetEv.exit16: ; preds = %_ZN4cvc58internal13ReferenceStatIlE5resetEv.exit8, %if.then.i.i11
  %11 = phi ptr [ %8, %_ZN4cvc58internal13ReferenceStatIlE5resetEv.exit8 ], [ %.pre.i14, %if.then.i.i11 ]
  %d_value.i15 = getelementptr inbounds i8, ptr %11, i64 16
  store ptr null, ptr %d_value.i15, align 8
  %d_statPropagations = getelementptr inbounds i8, ptr %this, i64 24
  %12 = load ptr, ptr %d_statPropagations, align 8
  %d_value.i.i17 = getelementptr inbounds i8, ptr %12, i64 16
  %13 = load ptr, ptr %d_value.i.i17, align 8
  %cmp.not.i.i18 = icmp eq ptr %13, null
  br i1 %cmp.not.i.i18, label %_ZN4cvc58internal13ReferenceStatIlE5resetEv.exit24, label %if.then.i.i19

if.then.i.i19:                                    ; preds = %_ZN4cvc58internal13ReferenceStatIlE5resetEv.exit16
  %14 = load i64, ptr %13, align 8
  %d_committed.i.i20 = getelementptr inbounds i8, ptr %12, i64 24
  store i64 %14, ptr %d_committed.i.i20, align 8
  %ref.tmp.sroa.2.0.d_committed.sroa_idx.i.i21 = getelementptr inbounds i8, ptr %12, i64 32
  store i8 1, ptr %ref.tmp.sroa.2.0.d_committed.sroa_idx.i.i21, align 8
  %.pre.i22 = load ptr, ptr %d_statPropagations, align 8
  br label %_ZN4cvc58internal13ReferenceStatIlE5resetEv.exit24

_ZN4cvc58internal13ReferenceStatIlE5resetEv.exit24: ; preds = %_ZN4cvc58internal13ReferenceStatIlE5resetEv.exit16, %if.then.i.i19
  %15 = phi ptr [ %12, %_ZN4cvc58internal13ReferenceStatIlE5resetEv.exit16 ], [ %.pre.i22, %if.then.i.i19 ]
  %d_value.i23 = getelementptr inbounds i8, ptr %15, i64 16
  store ptr null, ptr %d_value.i23, align 8
  %d_statConflicts = getelementptr inbounds i8, ptr %this, i64 32
  %16 = load ptr, ptr %d_statConflicts, align 8
  %d_value.i.i25 = getelementptr inbounds i8, ptr %16, i64 16
  %17 = load ptr, ptr %d_value.i.i25, align 8
  %cmp.not.i.i26 = icmp eq ptr %17, null
  br i1 %cmp.not.i.i26, label %_ZN4cvc58internal13ReferenceStatIlE5resetEv.exit32, label %if.then.i.i27

if.then.i.i27:                                    ; preds = %_ZN4cvc58internal13ReferenceStatIlE5resetEv.exit24
  %18 = load i64, ptr %17, align 8
  %d_committed.i.i28 = getelementptr inbounds i8, ptr %16, i64 24
  store i64 %18, ptr %d_committed.i.i28, align 8
  %ref.tmp.sroa.2.0.d_committed.sroa_idx.i.i29 = getelementptr inbounds i8, ptr %16, i64 32
  store i8 1, ptr %ref.tmp.sroa.2.0.d_committed.sroa_idx.i.i29, align 8
  %.pre.i30 = load ptr, ptr %d_statConflicts, align 8
  br label %_ZN4cvc58internal13ReferenceStatIlE5resetEv.exit32

_ZN4cvc58internal13ReferenceStatIlE5resetEv.exit32: ; preds = %_ZN4cvc58internal13ReferenceStatIlE5resetEv.exit24, %if.then.i.i27
  %19 = phi ptr [ %16, %_ZN4cvc58internal13ReferenceStatIlE5resetEv.exit24 ], [ %.pre.i30, %if.then.i.i27 ]
  %d_value.i31 = getelementptr inbounds i8, ptr %19, i64 16
  store ptr null, ptr %d_value.i31, align 8
  %d_statClausesLiterals = getelementptr inbounds i8, ptr %this, i64 40
  %20 = load ptr, ptr %d_statClausesLiterals, align 8
  %d_value.i.i33 = getelementptr inbounds i8, ptr %20, i64 16
  %21 = load ptr, ptr %d_value.i.i33, align 8
  %cmp.not.i.i34 = icmp eq ptr %21, null
  br i1 %cmp.not.i.i34, label %_ZN4cvc58internal13ReferenceStatIlE5resetEv.exit40, label %if.then.i.i35

if.then.i.i35:                                    ; preds = %_ZN4cvc58internal13ReferenceStatIlE5resetEv.exit32
  %22 = load i64, ptr %21, align 8
  %d_committed.i.i36 = getelementptr inbounds i8, ptr %20, i64 24
  store i64 %22, ptr %d_committed.i.i36, align 8
  %ref.tmp.sroa.2.0.d_committed.sroa_idx.i.i37 = getelementptr inbounds i8, ptr %20, i64 32
  store i8 1, ptr %ref.tmp.sroa.2.0.d_committed.sroa_idx.i.i37, align 8
  %.pre.i38 = load ptr, ptr %d_statClausesLiterals, align 8
  br label %_ZN4cvc58internal13ReferenceStatIlE5resetEv.exit40

_ZN4cvc58internal13ReferenceStatIlE5resetEv.exit40: ; preds = %_ZN4cvc58internal13ReferenceStatIlE5resetEv.exit32, %if.then.i.i35
  %23 = phi ptr [ %20, %_ZN4cvc58internal13ReferenceStatIlE5resetEv.exit32 ], [ %.pre.i38, %if.then.i.i35 ]
  %d_value.i39 = getelementptr inbounds i8, ptr %23, i64 16
  store ptr null, ptr %d_value.i39, align 8
  %d_statLearntsLiterals = getelementptr inbounds i8, ptr %this, i64 48
  %24 = load ptr, ptr %d_statLearntsLiterals, align 8
  %d_value.i.i41 = getelementptr inbounds i8, ptr %24, i64 16
  %25 = load ptr, ptr %d_value.i.i41, align 8
  %cmp.not.i.i42 = icmp eq ptr %25, null
  br i1 %cmp.not.i.i42, label %_ZN4cvc58internal13ReferenceStatIlE5resetEv.exit48, label %if.then.i.i43

if.then.i.i43:                                    ; preds = %_ZN4cvc58internal13ReferenceStatIlE5resetEv.exit40
  %26 = load i64, ptr %25, align 8
  %d_committed.i.i44 = getelementptr inbounds i8, ptr %24, i64 24
  store i64 %26, ptr %d_committed.i.i44, align 8
  %ref.tmp.sroa.2.0.d_committed.sroa_idx.i.i45 = getelementptr inbounds i8, ptr %24, i64 32
  store i8 1, ptr %ref.tmp.sroa.2.0.d_committed.sroa_idx.i.i45, align 8
  %.pre.i46 = load ptr, ptr %d_statLearntsLiterals, align 8
  br label %_ZN4cvc58internal13ReferenceStatIlE5resetEv.exit48

_ZN4cvc58internal13ReferenceStatIlE5resetEv.exit48: ; preds = %_ZN4cvc58internal13ReferenceStatIlE5resetEv.exit40, %if.then.i.i43
  %27 = phi ptr [ %24, %_ZN4cvc58internal13ReferenceStatIlE5resetEv.exit40 ], [ %.pre.i46, %if.then.i.i43 ]
  %d_value.i47 = getelementptr inbounds i8, ptr %27, i64 16
  store ptr null, ptr %d_value.i47, align 8
  %d_statMaxLiterals = getelementptr inbounds i8, ptr %this, i64 56
  %28 = load ptr, ptr %d_statMaxLiterals, align 8
  %d_value.i.i49 = getelementptr inbounds i8, ptr %28, i64 16
  %29 = load ptr, ptr %d_value.i.i49, align 8
  %cmp.not.i.i50 = icmp eq ptr %29, null
  br i1 %cmp.not.i.i50, label %_ZN4cvc58internal13ReferenceStatIlE5resetEv.exit56, label %if.then.i.i51

if.then.i.i51:                                    ; preds = %_ZN4cvc58internal13ReferenceStatIlE5resetEv.exit48
  %30 = load i64, ptr %29, align 8
  %d_committed.i.i52 = getelementptr inbounds i8, ptr %28, i64 24
  store i64 %30, ptr %d_committed.i.i52, align 8
  %ref.tmp.sroa.2.0.d_committed.sroa_idx.i.i53 = getelementptr inbounds i8, ptr %28, i64 32
  store i8 1, ptr %ref.tmp.sroa.2.0.d_committed.sroa_idx.i.i53, align 8
  %.pre.i54 = load ptr, ptr %d_statMaxLiterals, align 8
  br label %_ZN4cvc58internal13ReferenceStatIlE5resetEv.exit56

_ZN4cvc58internal13ReferenceStatIlE5resetEv.exit56: ; preds = %_ZN4cvc58internal13ReferenceStatIlE5resetEv.exit48, %if.then.i.i51
  %31 = phi ptr [ %28, %_ZN4cvc58internal13ReferenceStatIlE5resetEv.exit48 ], [ %.pre.i54, %if.then.i.i51 ]
  %d_value.i55 = getelementptr inbounds i8, ptr %31, i64 16
  store ptr null, ptr %d_value.i55, align 8
  %d_statTotLiterals = getelementptr inbounds i8, ptr %this, i64 64
  %32 = load ptr, ptr %d_statTotLiterals, align 8
  %d_value.i.i57 = getelementptr inbounds i8, ptr %32, i64 16
  %33 = load ptr, ptr %d_value.i.i57, align 8
  %cmp.not.i.i58 = icmp eq ptr %33, null
  br i1 %cmp.not.i.i58, label %_ZN4cvc58internal13ReferenceStatIlE5resetEv.exit64, label %if.then.i.i59

if.then.i.i59:                                    ; preds = %_ZN4cvc58internal13ReferenceStatIlE5resetEv.exit56
  %34 = load i64, ptr %33, align 8
  %d_committed.i.i60 = getelementptr inbounds i8, ptr %32, i64 24
  store i64 %34, ptr %d_committed.i.i60, align 8
  %ref.tmp.sroa.2.0.d_committed.sroa_idx.i.i61 = getelementptr inbounds i8, ptr %32, i64 32
  store i8 1, ptr %ref.tmp.sroa.2.0.d_committed.sroa_idx.i.i61, align 8
  %.pre.i62 = load ptr, ptr %d_statTotLiterals, align 8
  br label %_ZN4cvc58internal13ReferenceStatIlE5resetEv.exit64

_ZN4cvc58internal13ReferenceStatIlE5resetEv.exit64: ; preds = %_ZN4cvc58internal13ReferenceStatIlE5resetEv.exit56, %if.then.i.i59
  %35 = phi ptr [ %32, %_ZN4cvc58internal13ReferenceStatIlE5resetEv.exit56 ], [ %.pre.i62, %if.then.i.i59 ]
  %d_value.i63 = getelementptr inbounds i8, ptr %35, i64 16
  store ptr null, ptr %d_value.i63, align 8
  ret void
}